; Function Attrs: mustprogress uwtable
define dso_local void @_ZNK11flatbuffers28SimpleFloatConstantGenerator3InfB5cxx11Ef(ptr noalias sret(%"class.std::__cxx11::basic_string") align 8 %agg.result, ptr noundef nonnull align 8 dereferenceable(104) %this, float noundef %v) unnamed_addr #0 align 2 {
entry:
  %conv = fpext float %v to double
  %vtable = load ptr, ptr %this, align 8
  %vfn = getelementptr inbounds i8, ptr %vtable, i64 24
  %0 = load ptr, ptr %vfn, align 8
  tail call void %0(ptr sret(%"class.std::__cxx11::basic_string") align 8 %agg.result, ptr noundef nonnull align 8 dereferenceable(104) %this, double noundef %conv)
  ret void
}